target datalayout = "e-m:e-p270:32:32-p271:32:32-p272:64:64-i64:64-i128:128-f80:128-n8:16:32:64-S128"
target triple = "x86_64-pc-linux-gnu"

%struct.expert_field = type { i32, i32 }
%struct._packet_info = type { ptr, ptr, i32, i32, %struct.nstime_t, %struct.nstime_t, %struct.nstime_t, i8, ptr, ptr, ptr, ptr, %struct._address, %struct._address, %struct._address, %struct._address, %struct._address, %struct._address, i32, ptr, i8, [3 x i8], %struct.anon, i32, i32, i32, i32, ptr, i8, ptr, ptr, i16, i16, i32, i32, i16, i32, i32, ptr, ptr, ptr, i8, i8, i16, i16, i16, i32, i16, i16, ptr, ptr, ptr, ptr, ptr, i32, i32 }
%struct.nstime_t = type { i64, i32 }
%struct._address = type { i32, i32, ptr, ptr }
%struct.anon = type { i8, [3 x i8] }

@ei_gsm_a_gm_extraneous_data = internal global %struct.expert_field zeroinitializer, align 4
@ei_gsm_a_gm_missing_mandatory_element = internal global %struct.expert_field zeroinitializer, align 4
@.str.1096 = private unnamed_addr constant [64 x i8] c"Missing Mandatory elements %s %s, rest of dissection is suspect\00", align 1

; Function Attrs: null_pointer_is_valid sspstrong uwtable
define internal void @dtap_gmm_detach_acc(ptr noundef %0, ptr noundef %1, ptr noundef %2, i32 noundef %3, i32 noundef %4) #1 {
  %6 = alloca ptr, align 8
  %7 = alloca ptr, align 8
  %8 = alloca ptr, align 8
  %9 = alloca i32, align 4
  %10 = alloca i32, align 4
  %11 = alloca i32, align 4
  %12 = alloca i32, align 4
  %13 = alloca i32, align 4
  store ptr %0, ptr %6, align 8
  store ptr %1, ptr %7, align 8
  store ptr %2, ptr %8, align 8
  store i32 %3, ptr %9, align 4
  store i32 %4, ptr %10, align 4
  call void @llvm.lifetime.start.p0(i64 4, ptr %11) #6
  call void @llvm.lifetime.start.p0(i64 4, ptr %12) #6
  %14 = load i32, ptr %9, align 4
  store i32 %14, ptr %11, align 4
  %15 = load i32, ptr %10, align 4
  store i32 %15, ptr %12, align 4
  %16 = load ptr, ptr %8, align 8
  %17 = getelementptr inbounds nuw %struct._packet_info, ptr %16, i32 0, i32 37
  store i32 1, ptr %17, align 4
  %18 = load i32, ptr %12, align 4
  %19 = icmp eq i32 %18, 0
  br i1 %19, label %20, label %21

20:                                               ; preds = %5
  store i32 1, ptr %13, align 4
  br label %63

21:                                               ; preds = %5
  %22 = load i32, ptr %12, align 4
  %23 = icmp sgt i32 %22, 0
  br i1 %23, label %24, label %39

24:                                               ; preds = %21
  %25 = load ptr, ptr %6, align 8
  %26 = load ptr, ptr %7, align 8
  %27 = load ptr, ptr %8, align 8
  %28 = load i32, ptr %11, align 4
  %29 = call zeroext i16 @elem_v_short(ptr noundef %25, ptr noundef %26, ptr noundef %27, i32 noundef 5, i32 noundef 8, i32 noundef %28, i32 noundef 1)
  %30 = load ptr, ptr %6, align 8
  %31 = load ptr, ptr %7, align 8
  %32 = load ptr, ptr %8, align 8
  %33 = load i32, ptr %11, align 4
  %34 = call zeroext i16 @elem_v_short(ptr noundef %30, ptr noundef %31, ptr noundef %32, i32 noundef 4, i32 noundef 7, i32 noundef %33, i32 noundef 2)
  %35 = load i32, ptr %11, align 4
  %36 = add i32 %35, 1
  store i32 %36, ptr %11, align 4
  %37 = load i32, ptr %12, align 4
  %38 = add i32 %37, -1
  store i32 %38, ptr %12, align 4
  br label %47

39:                                               ; preds = %21
  %40 = load ptr, ptr %7, align 8
  %41 = load ptr, ptr %8, align 8
  %42 = load ptr, ptr %6, align 8
  %43 = load i32, ptr %11, align 4
  %44 = call ptr @get_gsm_a_msg_string(i32 noundef 5, i32 noundef 8)
  %45 = call ptr @get_gsm_a_msg_string(i32 noundef 4, i32 noundef 7)
  %46 = call ptr (ptr, ptr, ptr, ptr, i32, i32, ptr, ...) @proto_tree_add_expert_format(ptr noundef %40, ptr noundef %41, ptr noundef @ei_gsm_a_gm_missing_mandatory_element, ptr noundef %42, i32 noundef %43, i32 noundef 0, ptr noundef @.str.1096, ptr noundef %44, ptr noundef %45)
  br label %47

47:                                               ; preds = %39, %24
  %48 = load i32, ptr %12, align 4
  %49 = icmp ugt i32 %48, 0
  br i1 %49, label %50, label %62

50:                                               ; preds = %47
  %51 = load ptr, ptr %7, align 8
  %52 = load ptr, ptr %8, align 8
  %53 = load ptr, ptr %6, align 8
  %54 = load i32, ptr %11, align 4
  %55 = load i32, ptr %12, align 4
  %56 = sub i32 %55, 0
  %57 = call ptr @proto_tree_add_expert(ptr noundef %51, ptr noundef %52, ptr noundef @ei_gsm_a_gm_extraneous_data, ptr noundef %53, i32 noundef %54, i32 noundef %56)
  %58 = load i32, ptr %12, align 4
  %59 = sub i32 %58, 0
  %60 = load i32, ptr %11, align 4
  %61 = add i32 %60, %59
  store i32 %61, ptr %11, align 4
  br label %62

62:                                               ; preds = %50, %47
  store i32 0, ptr %13, align 4
  br label %63

63:                                               ; preds = %62, %20
  call void @llvm.lifetime.end.p0(i64 4, ptr %12) #6
  call void @llvm.lifetime.end.p0(i64 4, ptr %11) #6
  %64 = load i32, ptr %13, align 4
  switch i32 %64, label %66 [
    i32 0, label %65
    i32 1, label %65
  ]

65:                                               ; preds = %63, %63
  ret void

66:                                               ; preds = %63
  unreachable
}