; Function Attrs: null_pointer_is_valid sspstrong uwtable
define internal void @dtap_gmm_detach_acc(ptr noundef %0, ptr noundef %1, ptr noundef initializes((348, 352)) %2, i32 noundef %3, i32 noundef %4) #1 {
  %6 = getelementptr inbounds nuw i8, ptr %2, i64 348
  store i32 1, ptr %6, align 4
  %7 = icmp eq i32 %4, 0
  br i1 %7, label %20, label %8

8:                                                ; preds = %5
  %9 = icmp sgt i32 %4, 0
  br i1 %9, label %13, label %.thread

.thread:                                          ; preds = %8
  %10 = tail call ptr @get_gsm_a_msg_string(i32 noundef 5, i32 noundef 8)
  %11 = tail call ptr @get_gsm_a_msg_string(i32 noundef 4, i32 noundef 7)
  %12 = tail call ptr (ptr, ptr, ptr, ptr, i32, i32, ptr, ...) @proto_tree_add_expert_format(ptr noundef %1, ptr noundef %2, ptr noundef nonnull @ei_gsm_a_gm_missing_mandatory_element, ptr noundef %0, i32 noundef %3, i32 noundef 0, ptr noundef nonnull @.str.1096, ptr noundef %10, ptr noundef %11)
  br label %18

13:                                               ; preds = %8
  %14 = tail call zeroext i16 @elem_v_short(ptr noundef %0, ptr noundef %1, ptr noundef %2, i32 noundef 5, i32 noundef 8, i32 noundef %3, i32 noundef 1)
  %15 = tail call zeroext i16 @elem_v_short(ptr noundef %0, ptr noundef %1, ptr noundef %2, i32 noundef 4, i32 noundef 7, i32 noundef %3, i32 noundef 2)
  %16 = add i32 %3, 1
  %17 = add nsw i32 %4, -1
  %.not = icmp eq i32 %17, 0
  br i1 %.not, label %20, label %18

18:                                               ; preds = %.thread, %13
  %.032 = phi i32 [ %4, %.thread ], [ %17, %13 ]
  %.02631 = phi i32 [ %3, %.thread ], [ %16, %13 ]
  %19 = tail call ptr @proto_tree_add_expert(ptr noundef %1, ptr noundef %2, ptr noundef nonnull @ei_gsm_a_gm_extraneous_data, ptr noundef %0, i32 noundef %.02631, i32 noundef %.032)
  br label %20

20:                                               ; preds = %13, %18, %5
  ret void
}